target datalayout = "e-m:e-p270:32:32-p271:32:32-p272:64:64-i64:64-i128:128-f80:128-n8:16:32:64-S128"
target triple = "x86_64-pc-linux-gnu"

@.str.7 = private unnamed_addr constant [20 x i8] c"ICU error: %s(): %s\00", align 1
@.str.11 = private unnamed_addr constant [1 x i8] zeroinitializer, align 1
@.str.12 = private unnamed_addr constant [13 x i8] c"u_strToUpper\00", align 1
@.str.13 = private unnamed_addr constant [13 x i8] c"u_strToLower\00", align 1

; Function Attrs: nounwind uwtable
define internal void @icuFunctionError(ptr noundef %0, ptr noundef %1, i32 noundef %2) #0 {
  %4 = alloca ptr, align 8
  %5 = alloca ptr, align 8
  %6 = alloca i32, align 4
  %7 = alloca [128 x i8], align 16
  store ptr %0, ptr %4, align 8, !tbaa !22
  store ptr %1, ptr %5, align 8, !tbaa !28
  store i32 %2, ptr %6, align 4, !tbaa !11
  call void @llvm.lifetime.start.p0(i64 128, ptr %7) #3
  %8 = getelementptr inbounds [128 x i8], ptr %7, i64 0, i64 0
  %9 = load ptr, ptr %5, align 8, !tbaa !28
  %10 = load i32, ptr %6, align 4, !tbaa !11
  %11 = call ptr @u_errorName_70(i32 noundef %10)
  %12 = call ptr (i32, ptr, ptr, ...) @sqlite3_snprintf(i32 noundef 128, ptr noundef %8, ptr noundef @.str.7, ptr noundef %9, ptr noundef %11)
  %13 = getelementptr inbounds [128 x i8], ptr %7, i64 0, i64 127
  store i8 0, ptr %13, align 1, !tbaa !35
  %14 = load ptr, ptr %4, align 8, !tbaa !22
  %15 = getelementptr inbounds [128 x i8], ptr %7, i64 0, i64 0
  call void @sqlite3_result_error(ptr noundef %14, ptr noundef %15, i32 noundef -1)
  call void @llvm.lifetime.end.p0(i64 128, ptr %7) #3
  ret void
}

; Function Attrs: nounwind uwtable
define internal void @icuCaseFunc16(ptr noundef %0, i32 noundef %1, ptr noundef %2) #0 {
  %4 = alloca ptr, align 8
  %5 = alloca i32, align 4
  %6 = alloca ptr, align 8
  %7 = alloca ptr, align 8
  %8 = alloca ptr, align 8
  %9 = alloca i32, align 4
  %10 = alloca i32, align 4
  %11 = alloca i32, align 4
  %12 = alloca i32, align 4
  %13 = alloca i32, align 4
  %14 = alloca ptr, align 8
  %15 = alloca i32, align 4
  %16 = alloca ptr, align 8
  store ptr %0, ptr %4, align 8, !tbaa !22
  store i32 %1, ptr %5, align 4, !tbaa !11
  store ptr %2, ptr %6, align 8, !tbaa !24
  call void @llvm.lifetime.start.p0(i64 8, ptr %7) #3
  call void @llvm.lifetime.start.p0(i64 8, ptr %8) #3
  store ptr null, ptr %8, align 8, !tbaa !31
  call void @llvm.lifetime.start.p0(i64 4, ptr %9) #3
  call void @llvm.lifetime.start.p0(i64 4, ptr %10) #3
  call void @llvm.lifetime.start.p0(i64 4, ptr %11) #3
  call void @llvm.lifetime.start.p0(i64 4, ptr %12) #3
  call void @llvm.lifetime.start.p0(i64 4, ptr %13) #3
  call void @llvm.lifetime.start.p0(i64 8, ptr %14) #3
  store ptr null, ptr %14, align 8, !tbaa !28
  %17 = load ptr, ptr %4, align 8, !tbaa !22
  %18 = call ptr @sqlite3_user_data(ptr noundef %17)
  %19 = icmp ne ptr %18, null
  %20 = zext i1 %19 to i32
  store i32 %20, ptr %12, align 4, !tbaa !11
  %21 = load i32, ptr %5, align 4, !tbaa !11
  %22 = icmp eq i32 %21, 2
  br i1 %22, label %23, label %28

23:                                               ; preds = %3
  %24 = load ptr, ptr %6, align 8, !tbaa !24
  %25 = getelementptr inbounds ptr, ptr %24, i64 1
  %26 = load ptr, ptr %25, align 8, !tbaa !26
  %27 = call ptr @sqlite3_value_text(ptr noundef %26)
  store ptr %27, ptr %14, align 8, !tbaa !28
  br label %28

28:                                               ; preds = %23, %3
  %29 = load ptr, ptr %6, align 8, !tbaa !24
  %30 = getelementptr inbounds ptr, ptr %29, i64 0
  %31 = load ptr, ptr %30, align 8, !tbaa !26
  %32 = call ptr @sqlite3_value_text16(ptr noundef %31)
  store ptr %32, ptr %7, align 8, !tbaa !31
  %33 = load ptr, ptr %7, align 8, !tbaa !31
  %34 = icmp ne ptr %33, null
  br i1 %34, label %36, label %35

35:                                               ; preds = %28
  store i32 1, ptr %15, align 4
  br label %107

36:                                               ; preds = %28
  %37 = load ptr, ptr %6, align 8, !tbaa !24
  %38 = getelementptr inbounds ptr, ptr %37, i64 0
  %39 = load ptr, ptr %38, align 8, !tbaa !26
  %40 = call i32 @sqlite3_value_bytes16(ptr noundef %39)
  store i32 %40, ptr %9, align 4, !tbaa !11
  store i32 %40, ptr %10, align 4, !tbaa !11
  %41 = load i32, ptr %10, align 4, !tbaa !11
  %42 = icmp eq i32 %41, 0
  br i1 %42, label %43, label %45

43:                                               ; preds = %36
  %44 = load ptr, ptr %4, align 8, !tbaa !22
  call void @sqlite3_result_text16(ptr noundef %44, ptr noundef @.str.11, i32 noundef 0, ptr noundef null)
  store i32 1, ptr %15, align 4
  br label %107

45:                                               ; preds = %36
  store i32 0, ptr %11, align 4, !tbaa !11
  br label %46

46:                                               ; preds = %103, %45
  %47 = load i32, ptr %11, align 4, !tbaa !11
  %48 = icmp slt i32 %47, 2
  br i1 %48, label %49, label %106

49:                                               ; preds = %46
  call void @llvm.lifetime.start.p0(i64 8, ptr %16) #3
  %50 = load ptr, ptr %8, align 8, !tbaa !31
  %51 = load i32, ptr %10, align 4, !tbaa !11
  %52 = call ptr @sqlite3_realloc(ptr noundef %50, i32 noundef %51)
  store ptr %52, ptr %16, align 8, !tbaa !31
  %53 = load ptr, ptr %16, align 8, !tbaa !31
  %54 = icmp eq ptr %53, null
  br i1 %54, label %55, label %58

55:                                               ; preds = %49
  %56 = load ptr, ptr %8, align 8, !tbaa !31
  call void @sqlite3_free(ptr noundef %56)
  %57 = load ptr, ptr %4, align 8, !tbaa !22
  call void @sqlite3_result_error_nomem(ptr noundef %57)
  store i32 1, ptr %15, align 4
  br label %101

58:                                               ; preds = %49
  %59 = load ptr, ptr %16, align 8, !tbaa !31
  store ptr %59, ptr %8, align 8, !tbaa !31
  store i32 0, ptr %13, align 4, !tbaa !11
  %60 = load i32, ptr %12, align 4, !tbaa !11
  %61 = icmp ne i32 %60, 0
  br i1 %61, label %62, label %72

62:                                               ; preds = %58
  %63 = load ptr, ptr %8, align 8, !tbaa !31
  %64 = load i32, ptr %10, align 4, !tbaa !11
  %65 = sdiv i32 %64, 2
  %66 = load ptr, ptr %7, align 8, !tbaa !31
  %67 = load i32, ptr %9, align 4, !tbaa !11
  %68 = sdiv i32 %67, 2
  %69 = load ptr, ptr %14, align 8, !tbaa !28
  %70 = call i32 @u_strToUpper_70(ptr noundef %63, i32 noundef %65, ptr noundef %66, i32 noundef %68, ptr noundef %69, ptr noundef %13)
  %71 = mul nsw i32 2, %70
  store i32 %71, ptr %10, align 4, !tbaa !11
  br label %82

72:                                               ; preds = %58
  %73 = load ptr, ptr %8, align 8, !tbaa !31
  %74 = load i32, ptr %10, align 4, !tbaa !11
  %75 = sdiv i32 %74, 2
  %76 = load ptr, ptr %7, align 8, !tbaa !31
  %77 = load i32, ptr %9, align 4, !tbaa !11
  %78 = sdiv i32 %77, 2
  %79 = load ptr, ptr %14, align 8, !tbaa !28
  %80 = call i32 @u_strToLower_70(ptr noundef %73, i32 noundef %75, ptr noundef %76, i32 noundef %78, ptr noundef %79, ptr noundef %13)
  %81 = mul nsw i32 2, %80
  store i32 %81, ptr %10, align 4, !tbaa !11
  br label %82

82:                                               ; preds = %72, %62
  %83 = load i32, ptr %13, align 4, !tbaa !11
  %84 = icmp sle i32 %83, 0
  br i1 %84, label %85, label %89

85:                                               ; preds = %82
  %86 = load ptr, ptr %4, align 8, !tbaa !22
  %87 = load ptr, ptr %8, align 8, !tbaa !31
  %88 = load i32, ptr %10, align 4, !tbaa !11
  call void @sqlite3_result_text16(ptr noundef %86, ptr noundef %87, i32 noundef %88, ptr noundef @xFree)
  br label %100

89:                                               ; preds = %82
  %90 = load i32, ptr %13, align 4, !tbaa !11
  %91 = icmp eq i32 %90, 15
  br i1 %91, label %92, label %93

92:                                               ; preds = %89
  store i32 4, ptr %15, align 4
  br label %101

93:                                               ; preds = %89
  %94 = load ptr, ptr %4, align 8, !tbaa !22
  %95 = load i32, ptr %12, align 4, !tbaa !11
  %96 = icmp ne i32 %95, 0
  %97 = select i1 %96, ptr @.str.12, ptr @.str.13
  %98 = load i32, ptr %13, align 4, !tbaa !11
  call void @icuFunctionError(ptr noundef %94, ptr noundef %97, i32 noundef %98)
  br label %99

99:                                               ; preds = %93
  br label %100

100:                                              ; preds = %99, %85
  store i32 1, ptr %15, align 4
  br label %101

101:                                              ; preds = %100, %92, %55
  call void @llvm.lifetime.end.p0(i64 8, ptr %16) #3
  %102 = load i32, ptr %15, align 4
  switch i32 %102, label %107 [
    i32 4, label %103
  ]

103:                                              ; preds = %101
  %104 = load i32, ptr %11, align 4, !tbaa !11
  %105 = add nsw i32 %104, 1
  store i32 %105, ptr %11, align 4, !tbaa !11
  br label %46

106:                                              ; preds = %46
  store i32 0, ptr %15, align 4
  br label %107

107:                                              ; preds = %106, %101, %43, %35
  call void @llvm.lifetime.end.p0(i64 8, ptr %14) #3
  call void @llvm.lifetime.end.p0(i64 4, ptr %13) #3
  call void @llvm.lifetime.end.p0(i64 4, ptr %12) #3
  call void @llvm.lifetime.end.p0(i64 4, ptr %11) #3
  call void @llvm.lifetime.end.p0(i64 4, ptr %10) #3
  call void @llvm.lifetime.end.p0(i64 4, ptr %9) #3
  call void @llvm.lifetime.end.p0(i64 8, ptr %8) #3
  call void @llvm.lifetime.end.p0(i64 8, ptr %7) #3
  %108 = load i32, ptr %15, align 4
  switch i32 %108, label %110 [
    i32 0, label %109
    i32 1, label %109
  ]

109:                                              ; preds = %107, %107
  ret void

110:                                              ; preds = %107
  unreachable
}