; Function Attrs: nounwind uwtable
define internal void @icuCaseFunc16(ptr noundef %0, i32 noundef %1, ptr noundef readonly captures(none) %2) #0 {
  %4 = alloca [128 x i8], align 16
  %5 = alloca i32, align 4
  call void @llvm.lifetime.start.p0(i64 4, ptr nonnull %5) #3
  %6 = tail call ptr @sqlite3_user_data(ptr noundef %0) #3
  %.fr = freeze ptr %6
  %.not = icmp eq ptr %.fr, null
  %7 = icmp eq i32 %1, 2
  br i1 %7, label %8, label %12

8:                                                ; preds = %3
  %9 = getelementptr inbounds nuw i8, ptr %2, i64 8
  %10 = load ptr, ptr %9, align 8, !tbaa !18
  %11 = tail call ptr @sqlite3_value_text(ptr noundef %10) #3
  br label %12

12:                                               ; preds = %8, %3
  %.033 = phi ptr [ %11, %8 ], [ null, %3 ]
  %13 = load ptr, ptr %2, align 8, !tbaa !18
  %14 = tail call ptr @sqlite3_value_text16(ptr noundef %13) #3
  %.not41 = icmp eq ptr %14, null
  br i1 %.not41, label %.thread, label %15

15:                                               ; preds = %12
  %16 = load ptr, ptr %2, align 8, !tbaa !18
  %17 = tail call i32 @sqlite3_value_bytes16(ptr noundef %16) #3
  %18 = icmp eq i32 %17, 0
  br i1 %18, label %31, label %.preheader

.preheader:                                       ; preds = %15
  %19 = sdiv i32 %17, 2
  br i1 %.not, label %.preheader.split.us, label %.preheader.split

.preheader.split.us:                              ; preds = %.preheader, %23
  %.055.us = phi ptr [ %21, %23 ], [ null, %.preheader ]
  %.03454.us = phi i32 [ %.2.us, %23 ], [ %17, %.preheader ]
  %20 = phi i1 [ false, %23 ], [ true, %.preheader ]
  %21 = call ptr @sqlite3_realloc(ptr noundef %.055.us, i32 noundef %.03454.us) #3
  %22 = icmp eq ptr %21, null
  br i1 %22, label %.split.us, label %24

23:                                               ; preds = %29
  br i1 %20, label %.preheader.split.us, label %.thread

24:                                               ; preds = %.preheader.split.us
  store i32 0, ptr %5, align 4, !tbaa !17
  %25 = sdiv i32 %.03454.us, 2
  %26 = call i32 @u_strToLower_70(ptr noundef nonnull %21, i32 noundef %25, ptr noundef nonnull %14, i32 noundef %19, ptr noundef %.033, ptr noundef nonnull %5) #3
  %.2.us = shl nsw i32 %26, 1
  %27 = load i32, ptr %5, align 4, !tbaa !17
  %28 = icmp slt i32 %27, 1
  br i1 %28, label %.split57.us, label %29

29:                                               ; preds = %24
  %30 = icmp eq i32 %27, 15
  br i1 %30, label %23, label %.split61.us

31:                                               ; preds = %15
  tail call void @sqlite3_result_text16(ptr noundef %0, ptr noundef nonnull @.str.11, i32 noundef 0, ptr noundef null) #3
  br label %.thread

32:                                               ; preds = %41
  br i1 %33, label %.preheader.split, label %.thread

.preheader.split:                                 ; preds = %.preheader, %32
  %.055 = phi ptr [ %34, %32 ], [ null, %.preheader ]
  %.03454 = phi i32 [ %.2, %32 ], [ %17, %.preheader ]
  %33 = phi i1 [ false, %32 ], [ true, %.preheader ]
  %34 = call ptr @sqlite3_realloc(ptr noundef %.055, i32 noundef %.03454) #3
  %35 = icmp eq ptr %34, null
  br i1 %35, label %.split.us, label %36

.split.us:                                        ; preds = %.preheader.split, %.preheader.split.us
  %.us-phi = phi ptr [ %.055.us, %.preheader.split.us ], [ %.055, %.preheader.split ]
  call void @sqlite3_free(ptr noundef %.us-phi) #3
  call void @sqlite3_result_error_nomem(ptr noundef %0) #3
  br label %.thread

36:                                               ; preds = %.preheader.split
  store i32 0, ptr %5, align 4, !tbaa !17
  %37 = sdiv i32 %.03454, 2
  %38 = call i32 @u_strToUpper_70(ptr noundef nonnull %34, i32 noundef %37, ptr noundef nonnull %14, i32 noundef %19, ptr noundef %.033, ptr noundef nonnull %5) #3
  %.2 = shl nsw i32 %38, 1
  %39 = load i32, ptr %5, align 4, !tbaa !17
  %40 = icmp slt i32 %39, 1
  br i1 %40, label %.split57.us, label %41

.split57.us:                                      ; preds = %36, %24
  %.us-phi58 = phi i32 [ %.2.us, %24 ], [ %.2, %36 ]
  %.us-phi59 = phi ptr [ %21, %24 ], [ %34, %36 ]
  call void @sqlite3_result_text16(ptr noundef %0, ptr noundef nonnull %.us-phi59, i32 noundef %.us-phi58, ptr noundef nonnull @xFree) #3
  br label %.thread

41:                                               ; preds = %36
  %42 = icmp eq i32 %39, 15
  br i1 %42, label %32, label %.split61.us

.split61.us:                                      ; preds = %41, %29
  %43 = phi ptr [ @.str.13, %29 ], [ @.str.12, %41 ]
  %.us-phi62 = phi i32 [ %27, %29 ], [ %39, %41 ]
  call void @llvm.lifetime.start.p0(i64 128, ptr nonnull %4) #3
  %44 = call ptr @u_errorName_70(i32 noundef range(i32 1, -2147483648) %.us-phi62) #3
  %45 = call ptr (i32, ptr, ptr, ...) @sqlite3_snprintf(i32 noundef 128, ptr noundef nonnull %4, ptr noundef nonnull @.str.7, ptr noundef nonnull %43, ptr noundef %44) #3
  %46 = getelementptr inbounds nuw i8, ptr %4, i64 127
  store i8 0, ptr %46, align 1, !tbaa !20
  call void @sqlite3_result_error(ptr noundef %0, ptr noundef nonnull %4, i32 noundef -1) #3
  call void @llvm.lifetime.end.p0(i64 128, ptr nonnull %4) #3
  br label %.thread

.thread:                                          ; preds = %32, %23, %.split57.us, %.split61.us, %.split.us, %12, %31
  call void @llvm.lifetime.end.p0(i64 4, ptr nonnull %5) #3
  ret void
}